target datalayout = "e-m:e-p270:32:32-p271:32:32-p272:64:64-i64:64-i128:128-f80:128-n8:16:32:64-S128"
target triple = "x86_64-pc-linux-gnu"

%struct.H5ES_t = type { i64, ptr, ptr, ptr, ptr, %struct.H5ES_event_list_t, i8, %struct.H5ES_event_list_t }
%struct.H5ES_event_list_t = type { i64, ptr, ptr }
%struct.H5ES_get_requests_ctx_t = type { ptr, ptr, i64, i64 }

@H5ES_init_g = global i8 0, align 1
@H5_libterm_g = external global i8, align 1
@.str = private unnamed_addr constant [101 x i8] c"generated/home/dtcxzyw/WorkSpace/Projects/compilers/llvm-opt-benchmark/bench/hdf5/hdf5/src/H5ESint.c\00", align 1
@H5E_EVENTSET_g = external global i64, align 8
@__func__.H5ES__get_requests = private unnamed_addr constant [19 x i8] c"H5ES__get_requests\00", align 1
@H5E_BADITER_g = external global i64, align 8
@.str.10 = private unnamed_addr constant [17 x i8] c"iteration failed\00", align 1

; Function Attrs: nounwind uwtable
define i32 @H5ES__get_requests(ptr noundef %0, i32 noundef %1, ptr noundef %2, ptr noundef %3, i64 noundef %4) #0 {
  %6 = alloca ptr, align 8
  %7 = alloca i32, align 4
  %8 = alloca ptr, align 8
  %9 = alloca ptr, align 8
  %10 = alloca i64, align 8
  %11 = alloca %struct.H5ES_get_requests_ctx_t, align 8
  %12 = alloca i32, align 4
  %13 = alloca i8, align 1
  store ptr %0, ptr %6, align 8, !tbaa !13
  store i32 %1, ptr %7, align 4, !tbaa !3
  store ptr %2, ptr %8, align 8, !tbaa !43
  store ptr %3, ptr %9, align 8, !tbaa !18
  store i64 %4, ptr %10, align 8, !tbaa !11
  call void @llvm.lifetime.start.p0(i64 32, ptr %11) #5
  call void @llvm.lifetime.start.p0(i64 4, ptr %12) #5
  store i32 0, ptr %12, align 4, !tbaa !3
  call void @llvm.lifetime.start.p0(i64 1, ptr %13) #5
  store i8 0, ptr %13, align 1, !tbaa !7
  %14 = load i8, ptr @H5ES_init_g, align 1, !tbaa !7, !range !9, !noundef !10
  %15 = trunc i8 %14 to i1
  br i1 %15, label %20, label %16

16:                                               ; preds = %5
  %17 = load i8, ptr @H5_libterm_g, align 1, !tbaa !7, !range !9, !noundef !10
  %18 = trunc i8 %17 to i1
  %19 = xor i1 %18, true
  br label %20

20:                                               ; preds = %16, %5
  %21 = phi i1 [ true, %5 ], [ %19, %16 ]
  %22 = xor i1 %21, true
  %23 = xor i1 %22, true
  %24 = zext i1 %23 to i32
  %25 = sext i32 %24 to i64
  %26 = call i64 @llvm.expect.i64(i64 %25, i64 1)
  %27 = icmp ne i64 %26, 0
  br i1 %27, label %28, label %62

28:                                               ; preds = %20
  %29 = load ptr, ptr %8, align 8, !tbaa !43
  %30 = getelementptr inbounds nuw %struct.H5ES_get_requests_ctx_t, ptr %11, i32 0, i32 0
  store ptr %29, ptr %30, align 8, !tbaa !45
  %31 = load ptr, ptr %9, align 8, !tbaa !18
  %32 = getelementptr inbounds nuw %struct.H5ES_get_requests_ctx_t, ptr %11, i32 0, i32 1
  store ptr %31, ptr %32, align 8, !tbaa !47
  %33 = load i64, ptr %10, align 8, !tbaa !11
  %34 = getelementptr inbounds nuw %struct.H5ES_get_requests_ctx_t, ptr %11, i32 0, i32 2
  store i64 %33, ptr %34, align 8, !tbaa !48
  %35 = getelementptr inbounds nuw %struct.H5ES_get_requests_ctx_t, ptr %11, i32 0, i32 3
  store i64 0, ptr %35, align 8, !tbaa !49
  %36 = load ptr, ptr %6, align 8, !tbaa !13
  %37 = getelementptr inbounds nuw %struct.H5ES_t, ptr %36, i32 0, i32 5
  %38 = load i32, ptr %7, align 4, !tbaa !3
  %39 = call i32 @H5ES__list_iterate(ptr noundef %37, i32 noundef %38, ptr noundef @H5ES__get_requests_cb, ptr noundef %11)
  %40 = icmp slt i32 %39, 0
  br i1 %40, label %41, label %60

41:                                               ; preds = %28
  br label %42

42:                                               ; preds = %41
  br label %43

43:                                               ; preds = %42
  br label %44

44:                                               ; preds = %43
  %45 = load i64, ptr @H5E_EVENTSET_g, align 8, !tbaa !11
  %46 = load i64, ptr @H5E_BADITER_g, align 8, !tbaa !11
  %47 = call i32 (ptr, ptr, i32, i64, i64, ptr, ...) @H5E_printf_stack(ptr noundef @.str, ptr noundef @__func__.H5ES__get_requests, i32 noundef 503, i64 noundef %45, i64 noundef %46, ptr noundef @.str.10)
  br label %48

48:                                               ; preds = %44
  br label %49

49:                                               ; preds = %48
  store i8 1, ptr %13, align 1, !tbaa !7
  %50 = load i8, ptr %13, align 1, !tbaa !7, !range !9, !noundef !10
  %51 = trunc i8 %50 to i1
  %52 = zext i1 %51 to i8
  store i8 %52, ptr %13, align 1, !tbaa !7
  br label %53

53:                                               ; preds = %49
  br label %54

54:                                               ; preds = %53
  br label %55

55:                                               ; preds = %54
  store i32 -1, ptr %12, align 4, !tbaa !3
  br label %61

56:                                               ; No predecessors!
  br label %57

57:                                               ; preds = %56
  br label %58

58:                                               ; preds = %57
  br label %59

59:                                               ; preds = %58
  br label %60

60:                                               ; preds = %59, %28
  br label %61

61:                                               ; preds = %60, %55
  br label %62

62:                                               ; preds = %61, %20
  %63 = load i32, ptr %12, align 4, !tbaa !3
  call void @llvm.lifetime.end.p0(i64 1, ptr %13) #5
  call void @llvm.lifetime.end.p0(i64 4, ptr %12) #5
  call void @llvm.lifetime.end.p0(i64 32, ptr %11) #5
  ret i32 %63
}