; Function Attrs: nounwind uwtable
define range(i32 -1, 1) i32 @H5ES__get_requests(ptr noundef %0, i32 noundef %1, ptr noundef %2, ptr noundef %3, i64 noundef %4) local_unnamed_addr #0 {
  %6 = alloca %struct.H5ES_get_requests_ctx_t, align 8
  call void @llvm.lifetime.start.p0(i64 32, ptr nonnull %6) #5
  %7 = load i8, ptr @H5ES_init_g, align 1, !tbaa !3, !range !7, !noundef !8
  %8 = trunc nuw i8 %7 to i1
  %9 = load i8, ptr @H5_libterm_g, align 1, !range !7
  %10 = trunc nuw i8 %9 to i1
  %11 = xor i1 %10, true
  %12 = select i1 %8, i1 true, i1 %11
  br i1 %12, label %13, label %24, !prof !9

13:                                               ; preds = %5
  store ptr %2, ptr %6, align 8, !tbaa !35
  %14 = getelementptr inbounds nuw i8, ptr %6, i64 8
  store ptr %3, ptr %14, align 8, !tbaa !38
  %15 = getelementptr inbounds nuw i8, ptr %6, i64 16
  store i64 %4, ptr %15, align 8, !tbaa !39
  %16 = getelementptr inbounds nuw i8, ptr %6, i64 24
  store i64 0, ptr %16, align 8, !tbaa !40
  %17 = getelementptr inbounds nuw i8, ptr %0, i64 40
  %18 = call i32 @H5ES__list_iterate(ptr noundef nonnull %17, i32 noundef %1, ptr noundef nonnull @H5ES__get_requests_cb, ptr noundef nonnull %6) #5
  %19 = icmp slt i32 %18, 0
  br i1 %19, label %20, label %24

20:                                               ; preds = %13
  %21 = load i64, ptr @H5E_EVENTSET_g, align 8, !tbaa !10
  %22 = load i64, ptr @H5E_BADITER_g, align 8, !tbaa !10
  %23 = call i32 (ptr, ptr, i32, i64, i64, ptr, ...) @H5E_printf_stack(ptr noundef nonnull @.str, ptr noundef nonnull @__func__.H5ES__get_requests, i32 noundef 503, i64 noundef %21, i64 noundef %22, ptr noundef nonnull @.str.10) #5
  br label %24

24:                                               ; preds = %20, %13, %5
  %.0 = phi i32 [ -1, %20 ], [ 0, %13 ], [ 0, %5 ]
  call void @llvm.lifetime.end.p0(i64 32, ptr nonnull %6) #5
  ret i32 %.0
}